target datalayout = "e-m:e-p270:32:32-p271:32:32-p272:64:64-i64:64-i128:128-f80:128-n8:16:32:64-S128"
target triple = "x86_64-pc-linux-gnu"

%struct.T1_Builder_FuncsRec_ = type { ptr, ptr, ptr, ptr, ptr, ptr, ptr, ptr }
%struct.FT_BBox_ = type { i64, i64, i64, i64 }
%struct.T1_BuilderRec_ = type { ptr, ptr, ptr, ptr, ptr, ptr, i64, i64, %struct.FT_Vector_, %struct.FT_Vector_, %struct.FT_BBox_, i32, i8, i8, i8, ptr, ptr, %struct.T1_Builder_FuncsRec_ }
%struct.FT_Vector_ = type { i64, i64 }
%struct.FT_Outline_ = type { i16, i16, ptr, ptr, ptr, i32 }

; Function Attrs: nounwind uwtable
define internal void @t1_builder_close_contour(ptr noundef %0) #0 {
  %2 = alloca ptr, align 8
  %3 = alloca ptr, align 8
  %4 = alloca i32, align 4
  %5 = alloca ptr, align 8
  %6 = alloca ptr, align 8
  %7 = alloca ptr, align 8
  store ptr %0, ptr %2, align 8
  %8 = load ptr, ptr %2, align 8
  %9 = getelementptr inbounds %struct.T1_BuilderRec_, ptr %8, i32 0, i32 5
  %10 = load ptr, ptr %9, align 8
  store ptr %10, ptr %3, align 8
  %11 = load ptr, ptr %3, align 8
  %12 = icmp ne ptr %11, null
  br i1 %12, label %14, label %13

13:                                               ; preds = %1
  br label %155

14:                                               ; preds = %1
  %15 = load ptr, ptr %3, align 8
  %16 = getelementptr inbounds %struct.FT_Outline_, ptr %15, i32 0, i32 0
  %17 = load i16, ptr %16, align 8
  %18 = zext i16 %17 to i32
  %19 = icmp sle i32 %18, 1
  br i1 %19, label %20, label %21

20:                                               ; preds = %14
  br label %35

21:                                               ; preds = %14
  %22 = load ptr, ptr %3, align 8
  %23 = getelementptr inbounds %struct.FT_Outline_, ptr %22, i32 0, i32 4
  %24 = load ptr, ptr %23, align 8
  %25 = load ptr, ptr %3, align 8
  %26 = getelementptr inbounds %struct.FT_Outline_, ptr %25, i32 0, i32 0
  %27 = load i16, ptr %26, align 8
  %28 = zext i16 %27 to i32
  %29 = sub nsw i32 %28, 2
  %30 = sext i32 %29 to i64
  %31 = getelementptr inbounds i16, ptr %24, i64 %30
  %32 = load i16, ptr %31, align 2
  %33 = zext i16 %32 to i32
  %34 = add nsw i32 %33, 1
  br label %35

35:                                               ; preds = %21, %20
  %36 = phi i32 [ 0, %20 ], [ %34, %21 ]
  store i32 %36, ptr %4, align 4
  %37 = load ptr, ptr %3, align 8
  %38 = getelementptr inbounds %struct.FT_Outline_, ptr %37, i32 0, i32 0
  %39 = load i16, ptr %38, align 8
  %40 = zext i16 %39 to i32
  %41 = icmp ne i32 %40, 0
  br i1 %41, label %42, label %54

42:                                               ; preds = %35
  %43 = load i32, ptr %4, align 4
  %44 = load ptr, ptr %3, align 8
  %45 = getelementptr inbounds %struct.FT_Outline_, ptr %44, i32 0, i32 1
  %46 = load i16, ptr %45, align 2
  %47 = zext i16 %46 to i32
  %48 = icmp eq i32 %43, %47
  br i1 %48, label %49, label %54

49:                                               ; preds = %42
  %50 = load ptr, ptr %3, align 8
  %51 = getelementptr inbounds %struct.FT_Outline_, ptr %50, i32 0, i32 0
  %52 = load i16, ptr %51, align 8
  %53 = add i16 %52, -1
  store i16 %53, ptr %51, align 8
  br label %155

54:                                               ; preds = %42, %35
  %55 = load ptr, ptr %3, align 8
  %56 = getelementptr inbounds %struct.FT_Outline_, ptr %55, i32 0, i32 1
  %57 = load i16, ptr %56, align 2
  %58 = zext i16 %57 to i32
  %59 = icmp sgt i32 %58, 1
  br i1 %59, label %60, label %114

60:                                               ; preds = %54
  %61 = load ptr, ptr %3, align 8
  %62 = getelementptr inbounds %struct.FT_Outline_, ptr %61, i32 0, i32 2
  %63 = load ptr, ptr %62, align 8
  %64 = load i32, ptr %4, align 4
  %65 = sext i32 %64 to i64
  %66 = getelementptr inbounds %struct.FT_Vector_, ptr %63, i64 %65
  store ptr %66, ptr %5, align 8
  %67 = load ptr, ptr %3, align 8
  %68 = getelementptr inbounds %struct.FT_Outline_, ptr %67, i32 0, i32 2
  %69 = load ptr, ptr %68, align 8
  %70 = load ptr, ptr %3, align 8
  %71 = getelementptr inbounds %struct.FT_Outline_, ptr %70, i32 0, i32 1
  %72 = load i16, ptr %71, align 2
  %73 = zext i16 %72 to i32
  %74 = sext i32 %73 to i64
  %75 = getelementptr inbounds %struct.FT_Vector_, ptr %69, i64 %74
  %76 = getelementptr inbounds %struct.FT_Vector_, ptr %75, i64 -1
  store ptr %76, ptr %6, align 8
  %77 = load ptr, ptr %3, align 8
  %78 = getelementptr inbounds %struct.FT_Outline_, ptr %77, i32 0, i32 3
  %79 = load ptr, ptr %78, align 8
  %80 = load ptr, ptr %3, align 8
  %81 = getelementptr inbounds %struct.FT_Outline_, ptr %80, i32 0, i32 1
  %82 = load i16, ptr %81, align 2
  %83 = zext i16 %82 to i32
  %84 = sext i32 %83 to i64
  %85 = getelementptr inbounds i8, ptr %79, i64 %84
  %86 = getelementptr inbounds i8, ptr %85, i64 -1
  store ptr %86, ptr %7, align 8
  %87 = load ptr, ptr %5, align 8
  %88 = getelementptr inbounds %struct.FT_Vector_, ptr %87, i32 0, i32 0
  %89 = load i64, ptr %88, align 8
  %90 = load ptr, ptr %6, align 8
  %91 = getelementptr inbounds %struct.FT_Vector_, ptr %90, i32 0, i32 0
  %92 = load i64, ptr %91, align 8
  %93 = icmp eq i64 %89, %92
  br i1 %93, label %94, label %113

94:                                               ; preds = %60
  %95 = load ptr, ptr %5, align 8
  %96 = getelementptr inbounds %struct.FT_Vector_, ptr %95, i32 0, i32 1
  %97 = load i64, ptr %96, align 8
  %98 = load ptr, ptr %6, align 8
  %99 = getelementptr inbounds %struct.FT_Vector_, ptr %98, i32 0, i32 1
  %100 = load i64, ptr %99, align 8
  %101 = icmp eq i64 %97, %100
  br i1 %101, label %102, label %113

102:                                              ; preds = %94
  %103 = load ptr, ptr %7, align 8
  %104 = load i8, ptr %103, align 1
  %105 = zext i8 %104 to i32
  %106 = icmp eq i32 %105, 1
  br i1 %106, label %107, label %112

107:                                              ; preds = %102
  %108 = load ptr, ptr %3, align 8
  %109 = getelementptr inbounds %struct.FT_Outline_, ptr %108, i32 0, i32 1
  %110 = load i16, ptr %109, align 2
  %111 = add i16 %110, -1
  store i16 %111, ptr %109, align 2
  br label %112

112:                                              ; preds = %107, %102
  br label %113

113:                                              ; preds = %112, %94, %60
  br label %114

114:                                              ; preds = %113, %54
  %115 = load ptr, ptr %3, align 8
  %116 = getelementptr inbounds %struct.FT_Outline_, ptr %115, i32 0, i32 0
  %117 = load i16, ptr %116, align 8
  %118 = zext i16 %117 to i32
  %119 = icmp sgt i32 %118, 0
  br i1 %119, label %120, label %155

120:                                              ; preds = %114
  %121 = load i32, ptr %4, align 4
  %122 = load ptr, ptr %3, align 8
  %123 = getelementptr inbounds %struct.FT_Outline_, ptr %122, i32 0, i32 1
  %124 = load i16, ptr %123, align 2
  %125 = zext i16 %124 to i32
  %126 = sub nsw i32 %125, 1
  %127 = icmp eq i32 %121, %126
  br i1 %127, label %128, label %137

128:                                              ; preds = %120
  %129 = load ptr, ptr %3, align 8
  %130 = getelementptr inbounds %struct.FT_Outline_, ptr %129, i32 0, i32 0
  %131 = load i16, ptr %130, align 8
  %132 = add i16 %131, -1
  store i16 %132, ptr %130, align 8
  %133 = load ptr, ptr %3, align 8
  %134 = getelementptr inbounds %struct.FT_Outline_, ptr %133, i32 0, i32 1
  %135 = load i16, ptr %134, align 2
  %136 = add i16 %135, -1
  store i16 %136, ptr %134, align 2
  br label %154

137:                                              ; preds = %120
  %138 = load ptr, ptr %3, align 8
  %139 = getelementptr inbounds %struct.FT_Outline_, ptr %138, i32 0, i32 1
  %140 = load i16, ptr %139, align 2
  %141 = zext i16 %140 to i32
  %142 = sub nsw i32 %141, 1
  %143 = trunc i32 %142 to i16
  %144 = load ptr, ptr %3, align 8
  %145 = getelementptr inbounds %struct.FT_Outline_, ptr %144, i32 0, i32 4
  %146 = load ptr, ptr %145, align 8
  %147 = load ptr, ptr %3, align 8
  %148 = getelementptr inbounds %struct.FT_Outline_, ptr %147, i32 0, i32 0
  %149 = load i16, ptr %148, align 8
  %150 = zext i16 %149 to i32
  %151 = sub nsw i32 %150, 1
  %152 = sext i32 %151 to i64
  %153 = getelementptr inbounds i16, ptr %146, i64 %152
  store i16 %143, ptr %153, align 2
  br label %154

154:                                              ; preds = %137, %128
  br label %155

155:                                              ; preds = %154, %114, %49, %13
  ret void
}